(lp0
(lp1
I1
aF480.182461977005
aF545.5904190540314
aI1000
aI100
aI10
aF1e-06
aF0.5821294163737566
aF0.5822486140762524
aF0.582221550020583
aF0.5054643594619107
aF0.5056764783327484
aF0.5056031619290052
aa(lp2
I2
aF480.182461977005
aF96.85304689407349
aI1000
aI100
aI10
aF1e-05
aF0.5821417229265778
aF0.5822652516507162
aF0.582235984399193
aF0.5054682700087642
aF0.5056804404698322
aF0.5056070682850202
aa(lp3
I3
aF480.182461977005
aF95.49330997467041
aI1000
aI100
aI10
aF0.0001
aF0.5820295910228753
aF0.5821526423961549
aF0.5821212350202383
aF0.5054930942929178
aF0.5057053755656561
aF0.5056317206452984
aa(lp4
I4
aF480.182461977005
aF98.00141286849976
aI1000
aI100
aI10
aF0.001
aF0.5789350890388855
aF0.57903376067611
aF0.5789894917203623
aF0.5057301002183155
aF0.5059409978683777
aF0.5058655177220087
aa(lp5
I5
aF480.182461977005
aF96.36914300918579
aI1000
aI100
aI10
aF0.01
aF0.5544790047409668
aF0.5545769994927313
aF0.554681987771083
aF0.5106778847509196
aF0.5108741234702507
aF0.5108049446154842
aa(lp6
I6
aF480.182461977005
aF95.13920402526855
aI1000
aI100
aI15
aF1e-06
aF0.527746640662685
aF0.52802064758674
aF0.5278526890215507
aF0.6158096943794852
aF0.6162515408051779
aF0.6162587303843002
aa(lp7
I7
aF480.182461977005
aF95.11618399620056
aI1000
aI100
aI15
aF1e-05
aF0.5266204931063537
aF0.5268882707878527
aF0.5267169791739778
aF0.6177894583420404
aF0.6182334467352675
aF0.6182404663180866
aa(lp8
I8
aF480.182461977005
aF95.13118600845337
aI1000
aI100
aI15
aF0.0001
aF0.6598014485389506
aF0.6595872547609954
aF0.6599314850173209
aF0.5709683693113253
aF0.5710660241019018
aF0.5708403250254808
aa(lp9
I9
aF480.182461977005
aF94.11552095413208
aI1000
aI100
aI15
aF0.001
aF0.5213119033214308
aF0.5214859234043755
aF0.5215115063405086
aF0.629356279023744
aF0.6298086180887403
aF0.6298191470681253
aa(lp10
I10
aF480.182461977005
aF96.3294689655304
aI1000
aI100
aI15
aF0.01
aF0.5008033745067817
aF0.500829811940669
aF0.500830829887203
aF0.7066659326317585
aF0.7071653997962204
aF0.7072145150019215
aa(lp11
I11
aF480.182461977005
aF94.4881980419159
aI1000
aI100
aI18
aF1e-06
aF0.6646571051538629
aF0.664508312399163
aF0.6648123484888787
aF0.6380372211221136
aF0.6381086278808491
aF0.6377870437377076
aa(lp12
I12
aF480.182461977005
aF95.11929106712341
aI1000
aI100
aI18
aF1e-05
aF0.5166978634737531
aF0.5168099968142728
aF0.5169137220847071
aF0.7700496068480918
aF0.770635917631659
aF0.7706892231670514
aa(lp13
I13
aF480.182461977005
aF95.5311131477356
aI1000
aI100
aI18
aF0.0001
aF0.5157430021423369
aF0.5158599461248449
aF0.5159308721185868
aF0.768527927482257
aF0.769112107180947
aF0.7691650386265472
aa(lp14
I14
aF480.182461977005
aF95.13882398605347
aI1000
aI100
aI18
aF0.001
aF0.5139914248071651
aF0.514079322292085
aF0.5141341490423421
aF0.7550228453432902
aF0.75559116247538
aF0.7556353032810834
aa(lp15
I15
aF480.182461977005
aF94.1310670375824
aI1000
aI100
aI18
aF0.01
aF0.6461337283586815
aF0.6460262449895526
aF0.6464098474844262
aF0.6969173991835306
aF0.6968833207604431
aF0.6966081437192291
aa(lp16
I16
aF480.182461977005
aF94.602942943573
aI1000
aI100
aI20
aF1e-06
aF0.524251483541266
aF0.5244878584731182
aF0.5244062520461082
aF0.7412118748465794
aF0.7417781000709484
aF0.7418039725343534
aa(lp17
I17
aF480.182461977005
aF94.59117603302002
aI1000
aI100
aI20
aF1e-05
aF0.6613726027147077
aF0.6612682263988389
aF0.6614665887107547
aF0.698090501885327
aF0.6981446441721608
aF0.6977621060008035
aa(lp18
I18
aF480.182461977005
aF94.034597158432
aI1000
aI100
aI20
aF0.0001
aF0.5162005312480243
aF0.5163164156248999
aF0.5164145445763719
aF0.7805367892251441
aF0.7811348943538525
aF0.7811873145485853
aa(lp19
I19
aF480.182461977005
aF95.22200584411621
aI1000
aI100
aI20
aF0.001
aF0.6600519556568605
aF0.659908867756541
aF0.6603746689198238
aF0.5735942723244497
aF0.5737309113827095
aF0.5734333002490752
aa(lp20
I20
aF480.182461977005
aF93.93161487579346
aI1000
aI100
aI20
aF0.01
aF0.5952492013383535
aF0.59543940277258
aF0.5953924629063971
aF0.5115344118105835
aF0.5117452189694046
aF0.5115839597392666
aa(lp21
I21
aF480.182461977005
aF93.5424120426178
aI1000
aI100
aI30
aF1e-06
aF0.657840804616625
aF0.6576377343441093
aF0.6580644920837935
aF0.8237191737779426
aF0.8238055736408721
aF0.8232590352546142
aa(lp22
I22
aF480.182461977005
aF94.67345690727234
aI1000
aI100
aI30
aF1e-05
aF0.6219019487084672
aF0.6219958740773405
aF0.6219028935777924
aF0.5602140828396203
aF0.5605454389431724
aF0.5603043047222679
aa(lp23
I23
aF480.182461977005
aF93.93905186653137
aI1000
aI100
aI30
aF0.0001
aF0.6621008925717652
aF0.6617581142484232
aF0.662086062523394
aF0.6413140008102909
aF0.6414202782078162
aF0.6411072529830709
aa(lp24
I24
aF480.182461977005
aF92.84361410140991
aI1000
aI100
aI30
aF0.001
aF0.5000363904197259
aF0.5000369647449705
aF0.500038313527617
aF2.4578387217817967
aF2.4596312132654994
aF2.460094173613514
aa(lp25
I25
aF480.182461977005
aF94.02086901664734
aI1000
aI100
aI30
aF0.01
aF0.5251276654142731
aF0.5250931068694908
aF0.5252350012418316
aF1.499133706915855
aF1.4987546637094302
aF1.4981613090071877
aa(lp26
I26
aF480.182461977005
aF160.5851981639862
aI1000
aI500
aI10
aF1e-06
aF0.5810573420433817
aF0.5811829510003307
aF0.5811935217614853
aF0.5043928465209954
aF0.5046058808181605
aF0.5045281230982326
aa(lp27
I27
aF480.182461977005
aF159.06895303726196
aI1000
aI500
aI10
aF1e-05
aF0.5810375152324728
aF0.5811625153842139
aF0.5811722567320909
aF0.5043958799869552
aF0.5046089195664262
aF0.5045311263168878
aa(lp28
I28
aF480.182461977005
aF158.66223096847534
aI1000
aI500
aI10
aF0.0001
aF0.5807571636406805
aF0.580877941247298
aF0.5808810911976783
aF0.5044435731359074
aF0.5046564181505498
aF0.5045786244256218
aa(lp29
I29
aF480.182461977005
aF150.59364700317383
aI1000
aI500
aI10
aF0.001
aF0.5773651208612797
aF0.577517626743395
aF0.5774701651286401
aF0.5049415939810862
aF0.5051513119602651
aF0.5050744811427681
aa(lp30
I30
aF480.182461977005
aF115.99527597427368
aI1000
aI500
aI10
aF0.01
aF0.5527211087404369
aF0.5528925428931
aF0.5528655855540912
aF0.5108767610529562
aF0.5110719053529348
aF0.5110040679213002
aa(lp31
I31
aF480.182461977005
aF178.6686508655548
aI1000
aI500
aI15
aF1e-06
aF0.5866996170113399
aF0.5868238597382498
aF0.5867896729324631
aF0.5034214862177195
aF0.5036456430658635
aF0.50355280740849
aa(lp32
I32
aF480.182461977005
aF178.18172311782837
aI1000
aI500
aI15
aF1e-05
aF0.5865846365867803
aF0.58670785790143
aF0.5866570442253369
aF0.5034247232359703
aF0.503648547757456
aF0.5035561064636032
aa(lp33
I33
aF480.182461977005
aF179.5783610343933
aI1000
aI500
aI15
aF0.0001
aF0.5861276956678518
aF0.5862588565430012
aF0.5862320474985263
aF0.5034225164963435
aF0.5036457497516822
aF0.5035534730798462
aa(lp34
I34
aF480.182461977005
aF178.82551407814026
aI1000
aI500
aI15
aF0.001
aF0.581731293344253
aF0.581788089785017
aF0.5818104336394101
aF0.5036655112460496
aF0.5038826367321676
aF0.5037942871636591
aa(lp35
I35
aF480.182461977005
aF177.12476587295532
aI1000
aI500
aI15
aF0.01
aF0.5525028075716168
aF0.5526549720888623
aF0.5526340949263534
aF0.5106759389687003
aF0.5108705855998036
aF0.5108026442557426
aa(lp36
I36
aF480.182461977005
aF214.903795003891
aI1000
aI500
aI18
aF1e-06
aF0.5889107149080343
aF0.5889957416433157
aF0.5889591495820943
aF0.503172252112
aF0.5034017379086191
aF0.5032998177845174
aa(lp37
I37
aF480.182461977005
aF217.45955204963684
aI1000
aI500
aI18
aF1e-05
aF0.5889025467664355
aF0.5889936701457206
aF0.5889541258634188
aF0.503180381727594
aF0.5034102426086711
aF0.5033077981815288
aa(lp38
I38
aF480.182461977005
aF218.55487489700317
aI1000
aI500
aI18
aF0.0001
aF0.5882621295684451
aF0.588358183805065
aF0.5882970844800116
aF0.5031292273616853
aF0.5033577505293445
aF0.5032566602514523
aa(lp39
I39
aF480.182461977005
aF220.0031931400299
aI1000
aI500
aI18
aF0.001
aF0.582925010831625
aF0.5829989995187843
aF0.5830565708702895
aF0.5032326967533249
aF0.503452161288969
aF0.5033585069623029
aa(lp40
I40
aF480.182461977005
aF238.9879071712494
aI1000
aI500
aI18
aF0.01
aF0.5523383977375702
aF0.5524805542193945
aF0.5524711340564828
aF0.5107837096266232
aF0.5109772206449875
aF0.5109095558683083
aa(lp41
I41
aF480.182461977005
aF250.77478098869324
aI1000
aI500
aI20
aF1e-06
aF0.5896491099535048
aF0.5897291678038997
aF0.5897058944582971
aF0.5030761295355692
aF0.5033088471908634
aF0.5032019712714473
aa(lp42
I42
aF480.182461977005
aF249.44372987747192
aI1000
aI500
aI20
aF1e-05
aF0.5898123118886544
aF0.5898932341942982
aF0.5898814723066508
aF0.5030684115649138
aF0.5033005630003233
aF0.5031937995732516
aa(lp43
I43
aF480.182461977005
aF250.83508205413818
aI1000
aI500
aI20
aF0.0001
aF0.5888017214465787
aF0.5889238205683164
aF0.5888889256915235
aF0.5029866464130643
aF0.5032175300619012
aF0.5031129310622915
aa(lp44
I44
aF480.182461977005
aF257.78015780448914
aI1000
aI500
aI20
aF0.001
aF0.5826870489041295
aF0.5827659464556725
aF0.5828359572988729
aF0.5030332222786166
aF0.5032527512437736
aF0.5031587966161722
aa(lp45
I45
aF480.182461977005
aF285.6023769378662
aI1000
aI500
aI20
aF0.01
aF0.5517833420637983
aF0.55192550201103
aF0.5518992397410519
aF0.5108253627284403
aF0.5110192399102148
aF0.5109521178964045
aa(lp46
I46
aF480.182461977005
aF414.548623085022
aI1000
aI500
aI30
aF1e-06
aF0.6415365661025196
aF0.6414604851466155
aF0.6416001528707909
aF0.5249881498420448
aF0.5251417135914044
aF0.5249801869274028
aa(lp47
I47
aF480.182461977005
aF416.63309717178345
aI1000
aI500
aI30
aF1e-05
aF0.6416425662272923
aF0.6415782894832717
aF0.641693721322114
aF0.5251450303963706
aF0.5252973167154773
aF0.5251358264636898
aa(lp48
I48
aF480.182461977005
aF414.89127111434937
aI1000
aI500
aI30
aF0.0001
aF0.6424745756947507
aF0.6424089484619073
aF0.6425244810703955
aF0.5261125770115905
aF0.5262608050263777
aF0.526098545049164
aa(lp49
I49
aF480.182461977005
aF415.225989818573
aI1000
aI500
aI30
aF0.001
aF0.647401448895606
aF0.6472998502966283
aF0.647421470153524
aF0.5344293446174649
aF0.5345497744488871
aF0.5343812569431587
aa(lp50
I50
aF480.182461977005
aF416.0235149860382
aI1000
aI500
aI30
aF0.01
aF0.6507064279747358
aF0.6507137589702798
aF0.6509730923563269
aF0.5668228567408973
aF0.5668876476936372
aF0.5667053202394504
aa(lp51
I51
aF479.428827047348
aF556.6292579174042
aI5000
aI100
aI10
aF1e-06
aF0.5872643684647143
aF0.5874949384005347
aF0.5872633220828498
aF0.4986306006953381
aF0.4987981646126508
aF0.4988167351463343
aa(lp52
I52
aF479.428827047348
aF104.33479595184326
aI5000
aI100
aI10
aF1e-05
aF0.5872338247701986
aF0.5874751619780333
aF0.587231768136456
aF0.49863610456823404
aF0.4988036667170515
aF0.49882220468561017
aa(lp53
I53
aF479.428827047348
aF104.77427101135254
aI5000
aI100
aI10
aF0.0001
aF0.5868194117058209
aF0.587086684258172
aF0.5868130538710692
aF0.4986948434204749
aF0.49886223973357074
aF0.4988804113489752
aa(lp54
I54
aF479.428827047348
aF105.47762608528137
aI5000
aI100
aI10
aF0.001
aF0.5837913060857364
aF0.5839693775433943
aF0.5838029284865575
aF0.4993066265427934
aF0.4994731652072131
aF0.49948865635885886
aa(lp55
I55
aF479.428827047348
aF105.50628590583801
aI5000
aI100
aI10
aF0.01
aF0.5570957231566265
aF0.5574282016743101
aF0.5572338881396861
aF0.5068827242455015
aF0.5070455187200023
aF0.5070470390514967
aa(lp56
I56
aF479.428827047348
aF103.56624794006348
aI5000
aI100
aI15
aF1e-06
aF0.6377619393967663
aF0.6380576277705704
aF0.6377409622883777
aF0.5091686888658097
aF0.5092803518260154
aF0.5092525401773278
aa(lp57
I57
aF479.428827047348
aF103.67188501358032
aI5000
aI100
aI15
aF1e-05
aF0.5645905983856241
aF0.5648890534441733
aF0.5646356489183791
aF0.5128660744405146
aF0.5131286270042968
aF0.5131866345461266
aa(lp58
I58
aF479.428827047348
aF104.1550841331482
aI5000
aI100
aI15
aF0.0001
aF0.563726141865979
aF0.5640294303530619
aF0.5638080410151668
aF0.5133915691723461
aF0.5136551633657171
aF0.5137134684607245
aa(lp59
I59
aF479.428827047348
aF104.0616979598999
aI5000
aI100
aI15
aF0.001
aF0.6414095143867324
aF0.6416300164842826
aF0.6412730224724664
aF0.5143226332184934
aF0.514419546168193
aF0.5143753469334252
aa(lp60
I60
aF479.428827047348
aF102.9053168296814
aI5000
aI100
aI15
aF0.01
aF0.5071437879222659
aF0.5071505059992938
aF0.5072554104529066
aF0.5762849515747317
aF0.5766321225817705
aF0.5767158789055473
aa(lp61
I61
aF479.428827047348
aF104.23398399353027
aI5000
aI100
aI18
aF1e-06
aF0.6722629608810533
aF0.6719289409837549
aF0.6724455568137563
aF0.5709075047057725
aF0.5709378117629806
aF0.5708179561759826
aa(lp62
I62
aF479.428827047348
aF102.70187401771545
aI5000
aI100
aI18
aF1e-05
aF0.6720077981999171
aF0.6716806168486918
aF0.6721498915345654
aF0.570337511023984
aF0.5703694669064077
aF0.5702504943314518
aa(lp63
I63
aF479.428827047348
aF103.26328301429749
aI5000
aI100
aI18
aF0.0001
aF0.6722554661317327
aF0.6719132992228705
aF0.6724293987514434
aF0.571405696174456
aF0.571435140206409
aF0.5713135079496935
aa(lp64
I64
aF479.428827047348
aF103.95409202575684
aI5000
aI100
aI18
aF0.001
aF0.522657476119491
aF0.5228406042887184
aF0.5227908615955238
aF0.648506473562482
aF0.6489521361810627
aF0.6490953878271973
aa(lp65
I65
aF479.428827047348
aF102.57943511009216
aI5000
aI100
aI18
aF0.01
aF0.5006421356316952
aF0.5006678359298962
aF0.500662554896461
aF0.7373475981146301
aF0.7378558400091687
aF0.7380203120201994
aa(lp66
I66
aF479.428827047348
aF101.97941088676453
aI5000
aI100
aI20
aF1e-06
aF0.5221154003061909
aF0.5222881722425611
aF0.5222904874414152
aF0.7246812942806321
aF0.7251999538057176
aF0.7253824228076196
aa(lp67
I67
aF479.428827047348
aF102.63174891471863
aI5000
aI100
aI20
aF1e-05
aF0.5202986623934688
aF0.5203970370131241
aF0.5204864407137494
aF0.727955688194707
aF0.7284772745496951
aF0.7286546392675916
aa(lp68
I68
aF479.428827047348
aF102.22876596450806
aI5000
aI100
aI20
aF0.0001
aF0.5225134458673806
aF0.5226660384332065
aF0.5226721548257671
aF0.7234381814806268
aF0.7239549783816619
aF0.7241373086412968
aa(lp69
I69
aF479.428827047348
aF102.7358992099762
aI5000
aI100
aI20
aF0.001
aF0.5149037254047814
aF0.5150235144732707
aF0.5151132472760189
aF0.7553708932757204
aF0.7559067738359194
aF0.7561001902232961
aa(lp70
I70
aF479.428827047348
aF102.35567092895508
aI5000
aI100
aI20
aF0.01
aF0.6614469820211083
aF0.6612009048954138
aF0.6614493117648355
aF0.5745084342251033
aF0.5745281894434396
aF0.5743724834171648
aa(lp71
I71
aF479.428827047348
aF103.0328049659729
aI5000
aI100
aI30
aF1e-06
aF0.6736083367201469
aF0.6734056778486535
aF0.6735237134533794
aF0.6671325669898557
aF0.6671132427430804
aF0.6669437221302728
aa(lp72
I72
aF479.428827047348
aF102.1936399936676
aI5000
aI100
aI30
aF1e-05
aF0.6358404401989817
aF0.6360011318980562
aF0.6358618899822837
aF0.5352178661368446
aF0.5354795121912506
aF0.5354057327534061
aa(lp73
I73
aF479.428827047348
aF101.95977091789246
aI5000
aI100
aI30
aF0.0001
aF0.518879942319912
aF0.5189785692532436
aF0.5190368571217496
aF0.9705410808428763
aF0.9712485537170821
aF0.9715446666962665
aa(lp74
I74
aF479.428827047348
aF101.23084282875061
aI5000
aI100
aI30
aF0.001
aF0.5058927204998183
aF0.5059144654368606
aF0.5060486110632209
aF1.149601210892661
aF1.1503975186007214
aF1.1507926773997343
aa(lp75
I75
aF479.428827047348
aF100.9001739025116
aI5000
aI100
aI30
aF0.01
aF0.5385513737848296
aF0.5386877448176072
aF0.5388270302198923
aF0.6686993788708259
aF0.6691886906114343
aF0.6691663970285301
aa(lp76
I76
aF479.428827047348
aF233.2827661037445
aI5000
aI500
aI10
aF1e-06
aF0.5904006562143334
aF0.5906006014120648
aF0.5904514096996187
aF0.49552144472133586
aF0.4956966510766545
aF0.4956955975200025
aa(lp77
I77
aF479.428827047348
aF231.73682498931885
aI5000
aI500
aI10
aF1e-05
aF0.5903426565748752
aF0.5905562967084221
aF0.5903944289547044
aF0.49554449311577936
aF0.49571964582835365
aF0.49571867548373644
aa(lp78
I78
aF479.428827047348
aF228.35925602912903
aI5000
aI500
aI10
aF0.0001
aF0.5898199001219667
aF0.5900075049698391
aF0.5898381153879045
aF0.4956983032672933
aF0.4958730225028042
aF0.4958723891015032
aa(lp79
I79
aF479.428827047348
aF199.5938639640808
aI5000
aI500
aI10
aF0.001
aF0.5853105140658562
aF0.5855148027566802
aF0.5852842115084449
aF0.4971212027253832
aF0.4972927281661165
aF0.4972943301209785
aa(lp80
I80
aF479.428827047348
aF115.49397802352905
aI5000
aI500
aI10
aF0.01
aF0.5567252159023921
aF0.5570401033605735
aF0.5568886447445106
aF0.5068846744312137
aF0.5070475795070768
aF0.5070484453357683
aa(lp81
I81
aF479.428827047348
aF224.71417617797852
aI5000
aI500
aI15
aF1e-06
aF0.5960059506803193
aF0.5962391063198489
aF0.5960191210908153
aF0.4930064296925402
aF0.49319035658478894
aF0.49317172179924973
aa(lp82
I82
aF479.428827047348
aF223.65462684631348
aI5000
aI500
aI15
aF1e-05
aF0.5958827101232758
aF0.5961187476010719
aF0.5958873869482703
aF0.49301985878016436
aF0.4932036106177289
aF0.4931850657578245
aa(lp83
I83
aF479.428827047348
aF220.53740811347961
aI5000
aI500
aI15
aF0.0001
aF0.5952941176252348
aF0.5955396320351212
aF0.5953499807252116
aF0.4931982085652344
aF0.4933813574381375
aF0.49336387001644455
aa(lp84
I84
aF479.428827047348
aF188.6839451789856
aI5000
aI500
aI15
aF0.001
aF0.5900411658276657
aF0.5902438229148042
aF0.5900443407236791
aF0.4948478806169545
aF0.4950266186038722
aF0.495015904271301
aa(lp85
I85
aF479.428827047348
aF155.49416995048523
aI5000
aI500
aI15
aF0.01
aF0.5574212667815228
aF0.5577469187663073
aF0.5575593173054688
aF0.5062825134790163
aF0.5064466571637961
aF0.5064451066945598
aa(lp86
I86
aF479.428827047348
aF226.59743809700012
aI5000
aI500
aI18
aF1e-06
aF0.5990637136690984
aF0.5993203306246712
aF0.5990240383878364
aF0.4919027823251152
aF0.4920912291999014
aF0.4920624717032507
aa(lp87
I87
aF479.428827047348
aF229.45540499687195
aI5000
aI500
aI18
aF1e-05
aF0.5991092793412934
aF0.5993631993614777
aF0.5990654368886886
aF0.4919161974704157
aF0.492104781176477
aF0.492076007865863
aa(lp88
I88
aF479.428827047348
aF224.53029084205627
aI5000
aI500
aI18
aF0.0001
aF0.5983712731607158
aF0.5986312003407541
aF0.5983275915843845
aF0.49208986488340895
aF0.4922776484523803
aF0.4922503770931586
aa(lp89
I89
aF479.428827047348
aF205.4398832321167
aI5000
aI500
aI18
aF0.001
aF0.5925953751346198
aF0.592837852292576
aF0.5926515011484693
aF0.4936698325874317
aF0.49385198956605814
aF0.4938336309204225
aa(lp90
I90
aF479.428827047348
aF205.95811986923218
aI5000
aI500
aI18
aF0.01
aF0.5572477020583789
aF0.5575603641442276
aF0.5573939009048504
aF0.5063666649171327
aF0.5065301338669279
aF0.5065278275275564
aa(lp91
I91
aF479.428827047348
aF242.18850302696228
aI5000
aI500
aI20
aF1e-06
aF0.6013008654199002
aF0.601538179346068
aF0.6013560693572523
aF0.4912391672433298
aF0.4914311447259496
aF0.49139460533055107
aa(lp92
I92
aF479.428827047348
aF238.47150087356567
aI5000
aI500
aI20
aF1e-05
aF0.6010703615567515
aF0.6013290909429674
aF0.6011262329122569
aF0.49126997430442815
aF0.49146151209200933
aF0.4914254495698834
aa(lp93
I93
aF479.428827047348
aF236.9216330051422
aI5000
aI500
aI20
aF0.0001
aF0.600584734743689
aF0.6008299646301167
aF0.600616740138067
aF0.4914002662554342
aF0.4915913254349273
aF0.4915564680212936
aa(lp94
I94
aF479.428827047348
aF224.18579506874084
aI5000
aI500
aI20
aF0.001
aF0.5940607029634476
aF0.5943143068422169
aF0.5941274780996585
aF0.4929523182549442
aF0.49313644020367503
aF0.49311259877625463
aa(lp95
I95
aF479.428827047348
aF248.1030559539795
aI5000
aI500
aI20
aF0.01
aF0.5566037580793997
aF0.5568983292760605
aF0.5567432838375378
aF0.5064296389217356
aF0.5065935896271305
aF0.5065915135001128
aa(lp96
I96
aF479.428827047348
aF406.6970479488373
aI5000
aI500
aI30
aF1e-06
aF0.6091750406239892
aF0.6093926515809276
aF0.6093014946863616
aF0.48842388343206566
aF0.48863345137305597
aF0.48854436851734906
aa(lp97
I97
aF479.428827047348
aF408.4753658771515
aI5000
aI500
aI30
aF1e-05
aF0.608748473526151
aF0.6090128092787896
aF0.6088450580235415
aF0.4883587335081104
aF0.48856821393089656
aF0.48847992550080327
aa(lp98
I98
aF479.428827047348
aF410.6126980781555
aI5000
aI500
aI30
aF0.0001
aF0.607654441881026
aF0.607916942290627
aF0.6077299920933878
aF0.4884385434064265
aF0.4886451730052496
aF0.48856130538886844
aa(lp99
I99
aF479.428827047348
aF436.9128420352936
aI5000
aI500
aI30
aF0.001
aF0.5962855336355865
aF0.5964173661137195
aF0.5962852784051851
aF0.4907698834933149
aF0.49095881827426074
aF0.49090981239831005
aa(lp100
I100
aF479.428827047348
aF456.19618582725525
aI5000
aI500
aI30
aF0.01
aF0.5373628956476915
aF0.5375498353847482
aF0.5376450530314368
aF0.5092548606165735
aF0.5094554902593013
aF0.5094711541083624
aa(lp101
I101
aF478.3018889427185
aF561.625333070755
aI10000
aI100
aI10
aF1e-06
aF0.5879264702545234
aF0.5881103091219294
aF0.5879209844318923
aF0.4974780740013479
aF0.49764332326163413
aF0.49767631332488327
aa(lp102
I102
aF478.3018889427185
aF111.32247805595398
aI10000
aI100
aI10
aF1e-05
aF0.5880446945741089
aF0.5882158838309213
aF0.588017306435541
aF0.4974791050658769
aF0.49764443584139023
aF0.4976776046789794
aa(lp103
I103
aF478.3018889427185
aF112.71071290969849
aI10000
aI100
aI10
aF0.0001
aF0.5878749126964097
aF0.5880557306713684
aF0.5878547454919578
aF0.4975363988518851
aF0.4977017708336802
aF0.49773480497192313
aa(lp104
I104
aF478.3018889427185
aF110.51118397712708
aI10000
aI100
aI10
aF0.001
aF0.5845791852123511
aF0.5848564048297232
aF0.5845951699671628
aF0.4982243333776734
aF0.4983891849611943
aF0.4984183910401184
aa(lp105
I105
aF478.3018889427185
aF111.73137092590332
aI10000
aI100
aI10
aF0.01
aF0.5578250756732633
aF0.5580546936631385
aF0.5579263827497596
aF0.506232052733956
aF0.5063953495124278
aF0.506403982274732
aa(lp106
I106
aF478.3018889427185
aF110.50124502182007
aI10000
aI100
aI15
aF1e-06
aF0.5706022681883106
aF0.5709211421386281
aF0.570620327602323
aF0.5060608940977848
aF0.5063045048688272
aF0.5063715384611307
aa(lp107
I107
aF478.3018889427185
aF111.35456585884094
aI10000
aI100
aI15
aF1e-05
aF0.6332361842468343
aF0.6334944454279344
aF0.6331368412111045
aF0.5040490211885175
aF0.5041630962023506
aF0.504166158211546
aa(lp108
I108
aF478.3018889427185
aF112.60821580886841
aI10000
aI100
aI15
aF0.0001
aF0.5714806098742683
aF0.5718125479521227
aF0.5714852015769789
aF0.5058072070115106
aF0.5060495668590269
aF0.506117369376111
aa(lp109
I109
aF478.3018889427185
aF111.1040370464325
aI10000
aI100
aI15
aF0.001
aF0.6367802326439287
aF0.6370677430782257
aF0.6366120409958962
aF0.5086084215703237
aF0.5087087199662405
aF0.5086961645194311
aa(lp110
I110
aF478.3018889427185
aF110.4968512058258
aI10000
aI100
aI15
aF0.01
aF0.5094694127592431
aF0.5095245710414338
aF0.5096365211980206
aF0.5641519872987122
aF0.5644824004923418
aF0.5645635213915354
aa(lp111
I111
aF478.3018889427185
aF111.21844792366028
aI10000
aI100
aI18
aF1e-06
aF0.6726180902001944
aF0.6723241614336544
aF0.6727544795869884
aF0.562666548928582
aF0.5626888400213321
aF0.5626180164614552
aa(lp112
I112
aF478.3018889427185
aF110.68173289299011
aI10000
aI100
aI18
aF1e-05
aF0.6724739677366206
aF0.6721790648343926
aF0.6725830586638454
aF0.5623915747951604
aF0.5624144047945314
aF0.562344737501839
aa(lp113
I113
aF478.3018889427185
aF110.78108596801758
aI10000
aI100
aI18
aF0.0001
aF0.5329410456570761
aF0.5331411759769367
aF0.5330617830500535
aF0.6158933918714679
aF0.6163119540399158
aF0.6164569559891265
aa(lp114
I114
aF478.3018889427185
aF110.87248015403748
aI10000
aI100
aI18
aF0.001
aF0.5265466989051926
aF0.5267107651900812
aF0.5266683243851596
aF0.6308583036820619
aF0.6312882646412539
aF0.631434557638421
aa(lp115
I115
aF478.3018889427185
aF110.0627031326294
aI10000
aI100
aI18
aF0.01
aF0.6653121997087006
aF0.665274165115773
aF0.665471539452069
aF0.5969764220204752
aF0.5969605292533008
aF0.5968209170567073
aa(lp116
I116
aF478.3018889427185
aF109.00379610061646
aI10000
aI100
aI20
aF1e-06
aF0.676854944446221
aF0.6765687147983551
aF0.6769632394538057
aF0.5967702790787364
aF0.5967663993039147
aF0.5966569439986494
aa(lp117
I117
aF478.3018889427185
aF110.01809978485107
aI10000
aI100
aI20
aF1e-05
aF0.677031658844231
aF0.6767388146024765
aF0.677132380031147
aF0.5974241135966436
aF0.5974199319107304
aF0.5973072712462139
aa(lp118
I118
aF478.3018889427185
aF110.36048483848572
aI10000
aI100
aI20
aF0.0001
aF0.5244024336485775
aF0.5245700733942914
aF0.5245366187020007
aF0.7071277476585306
aF0.7076333055235499
aF0.7078196322855839
aa(lp119
I119
aF478.3018889427185
aF109.58733797073364
aI10000
aI100
aI20
aF0.001
aF0.67612391081072
aF0.6759434033417434
aF0.6763273001307124
aF0.6035589059320972
aF0.6035470546866203
aF0.6034115931559008
aa(lp120
I120
aF478.3018889427185
aF109.73008799552917
aI10000
aI100
aI20
aF0.01
aF0.6576193765571762
aF0.6574087717321362
aF0.657612637680465
aF0.5583307027455495
aF0.5583739560243672
aF0.5582355237098693
aa(lp121
I121
aF478.3018889427185
aF109.05683183670044
aI10000
aI100
aI30
aF1e-06
aF0.5077146885945304
aF0.5077824479667719
aF0.5078334549165819
aF1.2265749468446079
aF1.2274344734941967
aF1.2278638783982456
aa(lp122
I122
aF478.3018889427185
aF109.30916595458984
aI10000
aI100
aI30
aF1e-05
aF0.5027948800300983
aF0.5028158644935228
aF0.5028770587191335
aF1.4356259964411726
aF1.4366089116241747
aF1.4371373911121907
aa(lp123
I123
aF478.3018889427185
aF109.841561794281
aI10000
aI100
aI30
aF0.0001
aF0.6271799857323918
aF0.6273672513576216
aF0.627277070988609
aF0.5401249025886417
aF0.540423103605867
aF0.5403570973267731
aa(lp124
I124
aF478.3018889427185
aF109.97269487380981
aI10000
aI100
aI30
aF0.001
aF0.5077357824985975
aF0.5077625647543967
aF0.507898834755603
aF1.142013224775223
aF1.142813089160888
aF1.1431891781623555
aa(lp125
I125
aF478.3018889427185
aF107.6680040359497
aI10000
aI100
aI30
aF0.01
aF0.6198113561478192
aF0.6197370183016887
aF0.6200373408395072
aF0.9253549281569241
aF0.9250898744513546
aF0.9247683991906758
aa(lp126
I126
aF478.3018889427185
aF262.7399640083313
aI10000
aI500
aI10
aF1e-06
aF0.5918504254111288
aF0.5920567453377076
aF0.5918158245033069
aF0.4938458353191804
aF0.49401502760209776
aF0.49403119398243267
aa(lp127
I127
aF478.3018889427185
aF261.9980401992798
aI10000
aI500
aI10
aF1e-05
aF0.5918439831800015
aF0.5920516262113907
aF0.5918072062187916
aF0.493853294056992
aF0.4940225607622855
aF0.49403869072956774
aa(lp128
I128
aF478.3018889427185
aF256.77443408966064
aI10000
aI500
aI10
aF0.0001
aF0.5913364824805186
aF0.5915609021198093
aF0.5913468786062113
aF0.4940358801876436
aF0.4942051120331204
aF0.49422136308524967
aa(lp129
I129
aF478.3018889427185
aF225.56651282310486
aI10000
aI500
aI10
aF0.001
aF0.5865479137684937
aF0.5867685119493129
aF0.5866138657627378
aF0.49568662412942466
aF0.4958544009657275
aF0.4958712212908001
aa(lp130
I130
aF478.3018889427185
aF123.17543292045593
aI10000
aI500
aI10
aF0.01
aF0.5575650965806616
aF0.5578015556393325
aF0.5576637897308725
aF0.5062170433013141
aF0.5063804561029549
aF0.5063885465540257
aa(lp131
I131
aF478.3018889427185
aF256.7225270271301
aI10000
aI500
aI15
aF1e-06
aF0.5975687096852043
aF0.5978728344856206
aF0.5975106366299996
aF0.49089496476472744
aF0.49106561971997964
aF0.49106952639107737
aa(lp132
I132
aF478.3018889427185
aF255.02940702438354
aI10000
aI500
aI15
aF1e-05
aF0.597510577006894
aF0.597825157123446
aF0.5974477316201043
aF0.49092274277650866
aF0.49109344365890234
aF0.49109743989600874
aa(lp133
I133
aF478.3018889427185
aF251.84421515464783
aI10000
aI500
aI15
aF0.0001
aF0.5970018233442552
aF0.5973070777523507
aF0.5969053325135184
aF0.4911412992394745
aF0.4913124306313518
aF0.49131690453888693
aa(lp134
I134
aF478.3018889427185
aF211.2664098739624
aI10000
aI500
aI15
aF0.001
aF0.591182593312342
aF0.5914084754305473
aF0.5911504147877715
aF0.4932196131235848
aF0.49339015529278996
aF0.49339890618540255
aa(lp135
I135
aF478.3018889427185
aF162.9112310409546
aI10000
aI500
aI15
aF0.01
aF0.5584175995691391
aF0.5586583478065595
aF0.5585280885252384
aF0.5055324418138384
aF0.5056968733976479
aF0.5057033066284585
aa(lp136
I136
aF478.3018889427185
aF257.0948350429535
aI10000
aI500
aI18
aF1e-06
aF0.6008087074141546
aF0.6010813791034637
aF0.600774274367999
aF0.48959150440341287
aF0.48976260575530145
aF0.48976054303541017
aa(lp137
I137
aF478.3018889427185
aF258.3381311893463
aI10000
aI500
aI18
aF1e-05
aF0.6007923042784777
aF0.6010598007951659
aF0.600762314818515
aF0.48960576849166
aF0.489776950889098
aF0.48977490644764765
aa(lp138
I138
aF478.3018889427185
aF254.16155695915222
aI10000
aI500
aI18
aF0.0001
aF0.6000332697022702
aF0.6003162650583046
aF0.5999760714479182
aF0.4898434974376167
aF0.49001475022689206
aF0.4900136245147728
aa(lp139
I139
aF478.3018889427185
aF222.33117699623108
aI10000
aI500
aI18
aF0.001
aF0.5940147611573587
aF0.5942586161608051
aF0.5939183159073825
aF0.49190448566707357
aF0.49207602514187393
aF0.49208010932817525
aa(lp140
I140
aF478.3018889427185
aF217.90430092811584
aI10000
aI500
aI18
aF0.01
aF0.5578307732254776
aF0.5580945950144252
aF0.557952211681129
aF0.5056106752592385
aF0.5057749878611693
aF0.505780949475991
aa(lp141
I141
aF478.3018889427185
aF264.5023760795593
aI10000
aI500
aI20
aF1e-06
aF0.6029393674735655
aF0.603233165806398
aF0.6029867916646064
aF0.4888157417177474
aF0.48898651797718007
aF0.4889805307048559
aa(lp142
I142
aF478.3018889427185
aF263.65980410575867
aI10000
aI500
aI20
aF1e-05
aF0.6027845040815932
aF0.6030627862256397
aF0.602816215245688
aF0.4888434593034878
aF0.4890141582854969
aF0.489008304965044
aa(lp143
I143
aF478.3018889427185
aF259.25442600250244
aI10000
aI500
aI20
aF0.0001
aF0.6021847625365205
aF0.6024490004330763
aF0.6021352824653728
aF0.4890482684241397
aF0.48921928328085684
aF0.4892141232315766
aa(lp144
I144
aF478.3018889427185
aF239.17928099632263
aI10000
aI500
aI20
aF0.001
aF0.5954792308927063
aF0.5957446879611815
aF0.5954520957453007
aF0.49112048352140336
aF0.4912912669469302
aF0.491293144683903
aa(lp145
I145
aF478.3018889427185
aF259.34390020370483
aI10000
aI500
aI20
aF0.01
aF0.5575944682531903
aF0.5578522780534332
aF0.5577154748689928
aF0.5056656277481099
aF0.5058298707105001
aF0.505835695650651
aa(lp146
I146
aF478.3018889427185
aF426.972944021225
aI10000
aI500
aI30
aF1e-06
aF0.6110937071879188
aF0.6113958457337236
aF0.6112349823125685
aF0.4851431159256851
aF0.4853067309921906
aF0.48527674415467775
aa(lp147
I147
aF478.3018889427185
aF427.9421889781952
aI10000
aI500
aI30
aF1e-05
aF0.6108958349240048
aF0.6112128259780608
aF0.6110281852140448
aF0.48517110768630667
aF0.48533486806390824
aF0.48530496470817697
aa(lp148
I148
aF478.3018889427185
aF431.9231789112091
aI10000
aI500
aI30
aF0.0001
aF0.6092974263161693
aF0.6096093527236273
aF0.6093832101132027
aF0.485252647664991
aF0.48541622522501704
aF0.4853891617544979
aa(lp149
I149
aF478.3018889427185
aF459.358304977417
aI10000
aI500
aI30
aF0.001
aF0.597509795574581
aF0.5977488575761728
aF0.5974809531308373
aF0.4883715448343765
aF0.4885366814802883
aF0.48852626412580197
aa(lp150
I150
aF478.3018889427185
aF495.43182587623596
aI10000
aI500
aI30
aF0.01
aF0.5478408127884553
aF0.5480999303599191
aF0.5480178402730261
aF0.5062736579246826
aF0.5064546010634193
aF0.5064683337277474
aa.